target datalayout = "e-m:e-p270:32:32-p271:32:32-p272:64:64-i64:64-i128:128-f80:128-n8:16:32:64-S128"
target triple = "x86_64-pc-linux-gnu"

%struct.BTDedupStateData = type { i8, i32, i64, ptr, i16, i64, ptr, i32, i32, i64, i32, [408 x %struct.BTDedupInterval] }
%struct.BTDedupInterval = type { i16, i16 }
%struct.IndexTupleData = type { %struct.ItemPointerData, i16 }
%struct.ItemPointerData = type { %struct.BlockIdData, i16 }
%struct.BlockIdData = type { i16, i16 }

; Function Attrs: inlinehint nounwind uwtable
define internal i32 @BlockIdGetBlockNumber(ptr noundef %0) #2 {
  %2 = alloca ptr, align 8
  store ptr %0, ptr %2, align 8
  %3 = load ptr, ptr %2, align 8
  %4 = getelementptr inbounds nuw %struct.BlockIdData, ptr %3, i32 0, i32 0
  %5 = load i16, ptr %4, align 2
  %6 = zext i16 %5 to i32
  %7 = shl i32 %6, 16
  %8 = load ptr, ptr %2, align 8
  %9 = getelementptr inbounds nuw %struct.BlockIdData, ptr %8, i32 0, i32 1
  %10 = load i16, ptr %9, align 2
  %11 = zext i16 %10 to i32
  %12 = or i32 %7, %11
  ret i32 %12
}

; Function Attrs: inlinehint nounwind uwtable
define internal i32 @ItemPointerGetBlockNumberNoCheck(ptr noundef %0) #2 {
  %2 = alloca ptr, align 8
  store ptr %0, ptr %2, align 8
  %3 = load ptr, ptr %2, align 8
  %4 = getelementptr inbounds nuw %struct.ItemPointerData, ptr %3, i32 0, i32 0
  %5 = call i32 @BlockIdGetBlockNumber(ptr noundef %4)
  ret i32 %5
}

; Function Attrs: inlinehint nounwind uwtable
define internal zeroext i16 @ItemPointerGetOffsetNumberNoCheck(ptr noundef %0) #2 {
  %2 = alloca ptr, align 8
  store ptr %0, ptr %2, align 8
  %3 = load ptr, ptr %2, align 8
  %4 = getelementptr inbounds nuw %struct.ItemPointerData, ptr %3, i32 0, i32 1
  %5 = load i16, ptr %4, align 2
  ret i16 %5
}

; Function Attrs: inlinehint nounwind uwtable
define internal i32 @BTreeTupleGetPostingOffset(ptr noundef %0) #2 {
  %2 = alloca ptr, align 8
  store ptr %0, ptr %2, align 8
  %3 = load ptr, ptr %2, align 8
  %4 = getelementptr inbounds nuw %struct.IndexTupleData, ptr %3, i32 0, i32 0
  %5 = call i32 @ItemPointerGetBlockNumberNoCheck(ptr noundef %4)
  ret i32 %5
}

; Function Attrs: inlinehint nounwind uwtable
define internal ptr @BTreeTupleGetPosting(ptr noundef %0) #2 {
  %2 = alloca ptr, align 8
  store ptr %0, ptr %2, align 8
  %3 = load ptr, ptr %2, align 8
  %4 = load ptr, ptr %2, align 8
  %5 = call i32 @BTreeTupleGetPostingOffset(ptr noundef %4)
  %6 = zext i32 %5 to i64
  %7 = getelementptr inbounds nuw i8, ptr %3, i64 %6
  ret ptr %7
}

; Function Attrs: inlinehint nounwind uwtable
define internal zeroext i16 @BTreeTupleGetNPosting(ptr noundef %0) #2 {
  %2 = alloca ptr, align 8
  %3 = alloca i16, align 2
  store ptr %0, ptr %2, align 8
  call void @llvm.lifetime.start.p0(i64 2, ptr %3) #6
  %4 = load ptr, ptr %2, align 8
  %5 = getelementptr inbounds nuw %struct.IndexTupleData, ptr %4, i32 0, i32 0
  %6 = call zeroext i16 @ItemPointerGetOffsetNumberNoCheck(ptr noundef %5)
  store i16 %6, ptr %3, align 2
  %7 = load i16, ptr %3, align 2
  %8 = zext i16 %7 to i32
  %9 = and i32 %8, 4095
  %10 = trunc i32 %9 to i16
  call void @llvm.lifetime.end.p0(i64 2, ptr %3) #6
  ret i16 %10
}

; Function Attrs: inlinehint nounwind uwtable
define internal i64 @IndexTupleSize(ptr noundef %0) #2 {
  %2 = alloca ptr, align 8
  store ptr %0, ptr %2, align 8
  %3 = load ptr, ptr %2, align 8
  %4 = getelementptr inbounds nuw %struct.IndexTupleData, ptr %3, i32 0, i32 1
  %5 = load i16, ptr %4, align 2
  %6 = zext i16 %5 to i32
  %7 = and i32 %6, 8191
  %8 = sext i32 %7 to i64
  ret i64 %8
}

; Function Attrs: inlinehint nounwind uwtable
define internal zeroext i1 @BTreeTupleIsPosting(ptr noundef %0) #2 {
  %2 = alloca i1, align 1
  %3 = alloca ptr, align 8
  store ptr %0, ptr %3, align 8
  %4 = load ptr, ptr %3, align 8
  %5 = getelementptr inbounds nuw %struct.IndexTupleData, ptr %4, i32 0, i32 1
  %6 = load i16, ptr %5, align 2
  %7 = zext i16 %6 to i32
  %8 = and i32 %7, 8192
  %9 = icmp eq i32 %8, 0
  br i1 %9, label %10, label %11

10:                                               ; preds = %1
  store i1 false, ptr %2, align 1
  br label %20

11:                                               ; preds = %1
  %12 = load ptr, ptr %3, align 8
  %13 = getelementptr inbounds nuw %struct.IndexTupleData, ptr %12, i32 0, i32 0
  %14 = call zeroext i16 @ItemPointerGetOffsetNumberNoCheck(ptr noundef %13)
  %15 = zext i16 %14 to i32
  %16 = and i32 %15, 8192
  %17 = icmp eq i32 %16, 0
  br i1 %17, label %18, label %19

18:                                               ; preds = %11
  store i1 false, ptr %2, align 1
  br label %20

19:                                               ; preds = %11
  store i1 true, ptr %2, align 1
  br label %20

20:                                               ; preds = %19, %18, %10
  %21 = load i1, ptr %2, align 1
  ret i1 %21
}

; Function Attrs: nounwind uwtable
define dso_local void @_bt_dedup_start_pending(ptr noundef %0, ptr noundef %1, i16 noundef zeroext %2) #0 {
  %4 = alloca ptr, align 8
  %5 = alloca ptr, align 8
  %6 = alloca i16, align 2
  %7 = alloca i32, align 4
  store ptr %0, ptr %4, align 8
  store ptr %1, ptr %5, align 8
  store i16 %2, ptr %6, align 2
  %8 = load ptr, ptr %5, align 8
  %9 = call zeroext i1 @BTreeTupleIsPosting(ptr noundef %8)
  br i1 %9, label %22, label %10

10:                                               ; preds = %3
  %11 = load ptr, ptr %4, align 8
  %12 = getelementptr inbounds nuw %struct.BTDedupStateData, ptr %11, i32 0, i32 6
  %13 = load ptr, ptr %12, align 8
  %14 = load ptr, ptr %5, align 8
  %15 = getelementptr inbounds nuw %struct.IndexTupleData, ptr %14, i32 0, i32 0
  call void @llvm.memcpy.p0.p0.i64(ptr align 2 %13, ptr align 2 %15, i64 6, i1 false)
  %16 = load ptr, ptr %4, align 8
  %17 = getelementptr inbounds nuw %struct.BTDedupStateData, ptr %16, i32 0, i32 7
  store i32 1, ptr %17, align 8
  %18 = load ptr, ptr %5, align 8
  %19 = call i64 @IndexTupleSize(ptr noundef %18)
  %20 = load ptr, ptr %4, align 8
  %21 = getelementptr inbounds nuw %struct.BTDedupStateData, ptr %20, i32 0, i32 5
  store i64 %19, ptr %21, align 8
  br label %42

22:                                               ; preds = %3
  call void @llvm.lifetime.start.p0(i64 4, ptr %7) #6
  %23 = load ptr, ptr %5, align 8
  %24 = call zeroext i16 @BTreeTupleGetNPosting(ptr noundef %23)
  %25 = zext i16 %24 to i32
  store i32 %25, ptr %7, align 4
  %26 = load ptr, ptr %4, align 8
  %27 = getelementptr inbounds nuw %struct.BTDedupStateData, ptr %26, i32 0, i32 6
  %28 = load ptr, ptr %27, align 8
  %29 = load ptr, ptr %5, align 8
  %30 = call ptr @BTreeTupleGetPosting(ptr noundef %29)
  %31 = load i32, ptr %7, align 4
  %32 = sext i32 %31 to i64
  %33 = mul i64 6, %32
  call void @llvm.memcpy.p0.p0.i64(ptr align 2 %28, ptr align 2 %30, i64 %33, i1 false)
  %34 = load i32, ptr %7, align 4
  %35 = load ptr, ptr %4, align 8
  %36 = getelementptr inbounds nuw %struct.BTDedupStateData, ptr %35, i32 0, i32 7
  store i32 %34, ptr %36, align 8
  %37 = load ptr, ptr %5, align 8
  %38 = call i32 @BTreeTupleGetPostingOffset(ptr noundef %37)
  %39 = zext i32 %38 to i64
  %40 = load ptr, ptr %4, align 8
  %41 = getelementptr inbounds nuw %struct.BTDedupStateData, ptr %40, i32 0, i32 5
  store i64 %39, ptr %41, align 8
  call void @llvm.lifetime.end.p0(i64 4, ptr %7) #6
  br label %42

42:                                               ; preds = %22, %10
  %43 = load ptr, ptr %4, align 8
  %44 = getelementptr inbounds nuw %struct.BTDedupStateData, ptr %43, i32 0, i32 8
  store i32 1, ptr %44, align 4
  %45 = load ptr, ptr %5, align 8
  %46 = load ptr, ptr %4, align 8
  %47 = getelementptr inbounds nuw %struct.BTDedupStateData, ptr %46, i32 0, i32 3
  store ptr %45, ptr %47, align 8
  %48 = load i16, ptr %6, align 2
  %49 = load ptr, ptr %4, align 8
  %50 = getelementptr inbounds nuw %struct.BTDedupStateData, ptr %49, i32 0, i32 4
  store i16 %48, ptr %50, align 8
  %51 = load ptr, ptr %5, align 8
  %52 = call i64 @IndexTupleSize(ptr noundef %51)
  %53 = add i64 %52, 7
  %54 = and i64 %53, -8
  %55 = add i64 %54, 4
  %56 = load ptr, ptr %4, align 8
  %57 = getelementptr inbounds nuw %struct.BTDedupStateData, ptr %56, i32 0, i32 9
  store i64 %55, ptr %57, align 8
  %58 = load ptr, ptr %4, align 8
  %59 = getelementptr inbounds nuw %struct.BTDedupStateData, ptr %58, i32 0, i32 4
  %60 = load i16, ptr %59, align 8
  %61 = load ptr, ptr %4, align 8
  %62 = getelementptr inbounds nuw %struct.BTDedupStateData, ptr %61, i32 0, i32 11
  %63 = load ptr, ptr %4, align 8
  %64 = getelementptr inbounds nuw %struct.BTDedupStateData, ptr %63, i32 0, i32 10
  %65 = load i32, ptr %64, align 8
  %66 = sext i32 %65 to i64
  %67 = getelementptr inbounds [408 x %struct.BTDedupInterval], ptr %62, i64 0, i64 %66
  %68 = getelementptr inbounds nuw %struct.BTDedupInterval, ptr %67, i32 0, i32 0
  store i16 %60, ptr %68, align 4
  ret void
}