; Function Attrs: mustprogress nofree norecurse nosync nounwind willreturn memory(readwrite, inaccessiblemem: none) uwtable
define dso_local void @_bt_dedup_start_pending(ptr noundef captures(none) initializes((16, 26), (32, 40), (48, 64)) %0, ptr noundef %1, i16 noundef zeroext %2) local_unnamed_addr #4 {
  %4 = getelementptr inbounds nuw i8, ptr %1, i64 6
  %5 = load i16, ptr %4, align 2
  %6 = and i16 %5, 8192
  %7 = icmp eq i16 %6, 0
  br i1 %7, label %BTreeTupleIsPosting.exit.thread, label %BTreeTupleIsPosting.exit

BTreeTupleIsPosting.exit:                         ; preds = %3
  %8 = getelementptr i8, ptr %1, i64 4
  %.val.i = load i16, ptr %8, align 2
  %9 = and i16 %.val.i, 8192
  %.not = icmp eq i16 %9, 0
  br i1 %.not, label %BTreeTupleIsPosting.exit.thread, label %15

BTreeTupleIsPosting.exit.thread:                  ; preds = %3, %BTreeTupleIsPosting.exit
  %10 = getelementptr inbounds nuw i8, ptr %0, i64 40
  %11 = load ptr, ptr %10, align 8
  tail call void @llvm.memcpy.p0.p0.i64(ptr noundef nonnull align 2 dereferenceable(6) %11, ptr noundef nonnull align 2 dereferenceable(6) %1, i64 6, i1 false)
  %12 = getelementptr inbounds nuw i8, ptr %0, i64 48
  store i32 1, ptr %12, align 8
  %.val = load i16, ptr %4, align 2
  %13 = and i16 %.val, 8191
  %14 = zext nneg i16 %13 to i64
  br label %32

15:                                               ; preds = %BTreeTupleIsPosting.exit
  %16 = and i16 %.val.i, 4095
  %17 = zext nneg i16 %16 to i32
  %18 = getelementptr inbounds nuw i8, ptr %0, i64 40
  %19 = load ptr, ptr %18, align 8
  %.val.i27 = load i16, ptr %1, align 2
  %20 = getelementptr i8, ptr %1, i64 2
  %.val2.i = load i16, ptr %20, align 2
  %21 = zext i16 %.val.i27 to i64
  %22 = shl nuw nsw i64 %21, 16
  %23 = zext i16 %.val2.i to i64
  %24 = or disjoint i64 %22, %23
  %25 = getelementptr inbounds nuw i8, ptr %1, i64 %24
  %narrow = mul nuw nsw i16 %16, 6
  %26 = zext nneg i16 %narrow to i64
  tail call void @llvm.memcpy.p0.p0.i64(ptr align 2 %19, ptr nonnull align 2 %25, i64 %26, i1 false)
  %27 = getelementptr inbounds nuw i8, ptr %0, i64 48
  store i32 %17, ptr %27, align 8
  %.val25 = load i16, ptr %1, align 2
  %.val26 = load i16, ptr %20, align 2
  %28 = zext i16 %.val25 to i64
  %29 = shl nuw nsw i64 %28, 16
  %30 = zext i16 %.val26 to i64
  %31 = or disjoint i64 %29, %30
  br label %32

32:                                               ; preds = %15, %BTreeTupleIsPosting.exit.thread
  %.sink = phi i64 [ %31, %15 ], [ %14, %BTreeTupleIsPosting.exit.thread ]
  %33 = getelementptr inbounds nuw i8, ptr %0, i64 32
  store i64 %.sink, ptr %33, align 8
  %34 = getelementptr inbounds nuw i8, ptr %0, i64 52
  store i32 1, ptr %34, align 4
  %35 = getelementptr inbounds nuw i8, ptr %0, i64 16
  store ptr %1, ptr %35, align 8
  %36 = getelementptr inbounds nuw i8, ptr %0, i64 24
  store i16 %2, ptr %36, align 8
  %.val23 = load i16, ptr %4, align 2
  %37 = and i16 %.val23, 8191
  %narrow29 = add nuw nsw i16 %37, 7
  %38 = and i16 %narrow29, 16376
  %39 = or disjoint i16 %38, 4
  %40 = zext nneg i16 %39 to i64
  %41 = getelementptr inbounds nuw i8, ptr %0, i64 56
  store i64 %40, ptr %41, align 8
  %42 = getelementptr inbounds nuw i8, ptr %0, i64 68
  %43 = getelementptr inbounds nuw i8, ptr %0, i64 64
  %44 = load i32, ptr %43, align 8
  %45 = sext i32 %44 to i64
  %46 = getelementptr inbounds [408 x %struct.BTDedupInterval], ptr %42, i64 0, i64 %45
  store i16 %2, ptr %46, align 4
  ret void
}